; Function Attrs: null_pointer_is_valid sspstrong uwtable
define internal i32 @dissect_ldap_T_dnAttributes(i1 noundef zeroext %0, ptr noundef %1, i32 noundef %2, ptr noundef %3, ptr noundef %4, i32 noundef %5) #0 {
  %7 = alloca i8, align 1
  call void @llvm.lifetime.start.p0(i64 1, ptr nonnull %7) #14
  %8 = call i32 @dissect_ber_boolean(i1 noundef zeroext %0, ptr noundef %3, ptr noundef %4, ptr noundef %1, i32 noundef %2, i32 noundef %5, ptr noundef nonnull %7)
  %9 = load i8, ptr %7, align 1, !range !6, !noundef !7
  store i8 %9, ptr @matching_rule_dnattr, align 1
  call void @llvm.lifetime.end.p0(i64 1, ptr nonnull %7) #14
  ret i32 %8
}